target datalayout = "e-m:e-p270:32:32-p271:32:32-p272:64:64-i64:64-i128:128-f80:128-n8:16:32:64-S128"
target triple = "x86_64-pc-linux-gnu"

; Function Attrs: mustprogress nounwind uwtable
define noundef zeroext i1 @_ZNK10open_spiel8efg_game7EFGGame11IsNodeTokenEc(ptr noundef nonnull align 8 dereferenceable(720) %0, i8 noundef signext %1) #5 align 2 {
  %3 = alloca ptr, align 8
  %4 = alloca i8, align 1
  store ptr %0, ptr %3, align 8
  store i8 %1, ptr %4, align 1
  %5 = load i8, ptr %4, align 1
  %6 = sext i8 %5 to i32
  %7 = icmp eq i32 %6, 99
  br i1 %7, label %16, label %8

8:                                                ; preds = %2
  %9 = load i8, ptr %4, align 1
  %10 = sext i8 %9 to i32
  %11 = icmp eq i32 %10, 112
  br i1 %11, label %16, label %12

12:                                               ; preds = %8
  %13 = load i8, ptr %4, align 1
  %14 = sext i8 %13 to i32
  %15 = icmp eq i32 %14, 116
  br label %16

16:                                               ; preds = %12, %8, %2
  %17 = phi i1 [ true, %8 ], [ true, %2 ], [ %15, %12 ]
  ret i1 %17
}