; Function Attrs: mustprogress nofree norecurse nosync nounwind willreturn memory(none) uwtable
define noundef zeroext i1 @_ZNK10open_spiel8efg_game7EFGGame11IsNodeTokenEc(ptr noundef nonnull readnone align 8 captures(none) dereferenceable(720) %0, i8 noundef signext %1) local_unnamed_addr #13 align 2 {
switch.edge:
  %switch.tableidx = add i8 %1, -99
  %2 = icmp ult i8 %switch.tableidx, 18
  %switch.cast = zext nneg i8 %switch.tableidx to i18
  %switch.downshift = lshr i18 -122879, %switch.cast
  %switch.masked = trunc i18 %switch.downshift to i1
  %3 = select i1 %2, i1 %switch.masked, i1 false
  ret i1 %3
}